target datalayout = "e-m:e-p270:32:32-p271:32:32-p272:64:64-i64:64-i128:128-f80:128-n8:16:32:64-S128"
target triple = "x86_64-pc-linux-gnu"

%struct.OnigEncodingTypeST = type { ptr, ptr, i32, i32, ptr, ptr, ptr, ptr, ptr, ptr, ptr, ptr, ptr, ptr, ptr, ptr, ptr, ptr, ptr, i32, i32, i32 }

; Function Attrs: nounwind uwtable
define internal i32 @is_allowed_callout_tag_name(ptr noundef %0, ptr noundef %1, ptr noundef %2) #0 {
  %4 = alloca i32, align 4
  %5 = alloca ptr, align 8
  %6 = alloca ptr, align 8
  %7 = alloca ptr, align 8
  %8 = alloca ptr, align 8
  %9 = alloca i32, align 4
  %10 = alloca i32, align 4
  store ptr %0, ptr %5, align 8, !tbaa !32
  store ptr %1, ptr %6, align 8, !tbaa !4
  store ptr %2, ptr %7, align 8, !tbaa !4
  call void @llvm.lifetime.start.p0(i64 8, ptr %8) #8
  call void @llvm.lifetime.start.p0(i64 4, ptr %9) #8
  %11 = load ptr, ptr %6, align 8, !tbaa !4
  %12 = load ptr, ptr %7, align 8, !tbaa !4
  %13 = icmp uge ptr %11, %12
  br i1 %13, label %14, label %15

14:                                               ; preds = %3
  store i32 0, ptr %4, align 4
  store i32 1, ptr %10, align 4
  br label %71

15:                                               ; preds = %3
  %16 = load ptr, ptr %6, align 8, !tbaa !4
  store ptr %16, ptr %8, align 8, !tbaa !4
  br label %17

17:                                               ; preds = %61, %15
  %18 = load ptr, ptr %8, align 8, !tbaa !4
  %19 = load ptr, ptr %7, align 8, !tbaa !4
  %20 = icmp ult ptr %18, %19
  br i1 %20, label %21, label %70

21:                                               ; preds = %17
  %22 = load ptr, ptr %5, align 8, !tbaa !32
  %23 = getelementptr inbounds nuw %struct.OnigEncodingTypeST, ptr %22, i32 0, i32 5
  %24 = load ptr, ptr %23, align 8, !tbaa !92
  %25 = load ptr, ptr %8, align 8, !tbaa !4
  %26 = load ptr, ptr %7, align 8, !tbaa !4
  %27 = call i32 %24(ptr noundef %25, ptr noundef %26)
  store i32 %27, ptr %9, align 4, !tbaa !10
  %28 = load i32, ptr %9, align 4, !tbaa !10
  %29 = icmp uge i32 %28, 65
  br i1 %29, label %30, label %33

30:                                               ; preds = %21
  %31 = load i32, ptr %9, align 4, !tbaa !10
  %32 = icmp ule i32 %31, 90
  br i1 %32, label %49, label %33

33:                                               ; preds = %30, %21
  %34 = load i32, ptr %9, align 4, !tbaa !10
  %35 = icmp uge i32 %34, 97
  br i1 %35, label %36, label %39

36:                                               ; preds = %33
  %37 = load i32, ptr %9, align 4, !tbaa !10
  %38 = icmp ule i32 %37, 122
  br i1 %38, label %49, label %39

39:                                               ; preds = %36, %33
  %40 = load i32, ptr %9, align 4, !tbaa !10
  %41 = icmp uge i32 %40, 48
  br i1 %41, label %42, label %45

42:                                               ; preds = %39
  %43 = load i32, ptr %9, align 4, !tbaa !10
  %44 = icmp ule i32 %43, 57
  br i1 %44, label %49, label %45

45:                                               ; preds = %42, %39
  %46 = load i32, ptr %9, align 4, !tbaa !10
  %47 = icmp eq i32 %46, 95
  br i1 %47, label %49, label %48

48:                                               ; preds = %45
  store i32 0, ptr %4, align 4
  store i32 1, ptr %10, align 4
  br label %71

49:                                               ; preds = %45, %42, %36, %30
  %50 = load ptr, ptr %8, align 8, !tbaa !4
  %51 = load ptr, ptr %6, align 8, !tbaa !4
  %52 = icmp eq ptr %50, %51
  br i1 %52, label %53, label %61

53:                                               ; preds = %49
  %54 = load i32, ptr %9, align 4, !tbaa !10
  %55 = icmp uge i32 %54, 48
  br i1 %55, label %56, label %60

56:                                               ; preds = %53
  %57 = load i32, ptr %9, align 4, !tbaa !10
  %58 = icmp ule i32 %57, 57
  br i1 %58, label %59, label %60

59:                                               ; preds = %56
  store i32 0, ptr %4, align 4
  store i32 1, ptr %10, align 4
  br label %71

60:                                               ; preds = %56, %53
  br label %61

61:                                               ; preds = %60, %49
  %62 = load ptr, ptr %5, align 8, !tbaa !32
  %63 = getelementptr inbounds nuw %struct.OnigEncodingTypeST, ptr %62, i32 0, i32 0
  %64 = load ptr, ptr %63, align 8, !tbaa !94
  %65 = load ptr, ptr %8, align 8, !tbaa !4
  %66 = call i32 %64(ptr noundef %65)
  %67 = load ptr, ptr %8, align 8, !tbaa !4
  %68 = sext i32 %66 to i64
  %69 = getelementptr inbounds i8, ptr %67, i64 %68
  store ptr %69, ptr %8, align 8, !tbaa !4
  br label %17, !llvm.loop !279

70:                                               ; preds = %17
  store i32 1, ptr %4, align 4
  store i32 1, ptr %10, align 4
  br label %71

71:                                               ; preds = %70, %59, %48, %14
  call void @llvm.lifetime.end.p0(i64 4, ptr %9) #8
  call void @llvm.lifetime.end.p0(i64 8, ptr %8) #8
  %72 = load i32, ptr %4, align 4
  ret i32 %72
}